target datalayout = "e-m:e-p270:32:32-p271:32:32-p272:64:64-i64:64-i128:128-f80:128-n8:16:32:64-S128"
target triple = "x86_64-pc-linux-gnu"

%class.ThreadsList = type { i32, i32, ptr, ptr, i64 }

@_ZN17ThreadsSMRSupport17_java_thread_listE = hidden global ptr @_ZN17ThreadsSMRSupport15_bootstrap_listE, align 8
@PrefetchScanIntervalInBytes = external global i64, align 8

; Function Attrs: mustprogress nounwind uwtable
define linkonce_odr hidden void @_ZNK11ThreadsList19threads_do_dispatchI13ThreadClosureEEvPT_P10JavaThread(ptr noundef nonnull align 8 dereferenceable(32) %0, ptr noundef %1, ptr noundef %2) #1 comdat align 2 {
  %4 = alloca ptr, align 8
  %5 = alloca ptr, align 8
  %6 = alloca ptr, align 8
  store ptr %0, ptr %4, align 8
  store ptr %1, ptr %5, align 8
  store ptr %2, ptr %6, align 8
  %7 = load ptr, ptr %5, align 8
  %8 = load ptr, ptr %6, align 8
  %9 = load ptr, ptr %7, align 8
  %10 = getelementptr inbounds ptr, ptr %9, i64 0
  %11 = load ptr, ptr %10, align 8
  call void %11(ptr noundef nonnull align 8 dereferenceable(8) %7, ptr noundef %8)
  ret void
}

; Function Attrs: mustprogress nounwind uwtable
define linkonce_odr hidden void @_ZN8Prefetch4readEPKvl(ptr noundef %0, i64 noundef %1) #1 comdat align 2 {
  %3 = alloca ptr, align 8
  %4 = alloca i64, align 8
  store ptr %0, ptr %3, align 8
  store i64 %1, ptr %4, align 8
  %5 = load ptr, ptr %3, align 8
  %6 = load i64, ptr %4, align 8
  call void asm sideeffect "prefetcht0 ($0,$1,1)", "r,r,~{dirflag},~{fpsr},~{flags}"(ptr %5, i64 %6) #2, !srcloc !36
  ret void
}

; Function Attrs: mustprogress nounwind uwtable
define linkonce_odr hidden void @_ZNK11ThreadsList10threads_doI13ThreadClosureEEvPT_(ptr noundef nonnull align 8 dereferenceable(32) %0, ptr noundef %1) #1 comdat align 2 {
  %3 = alloca ptr, align 8
  %4 = alloca ptr, align 8
  %5 = alloca i64, align 8
  %6 = alloca ptr, align 8
  %7 = alloca ptr, align 8
  %8 = alloca ptr, align 8
  store ptr %0, ptr %3, align 8
  store ptr %1, ptr %4, align 8
  %9 = load ptr, ptr %3, align 8
  %10 = load i64, ptr @PrefetchScanIntervalInBytes, align 8
  store i64 %10, ptr %5, align 8
  %11 = getelementptr inbounds %class.ThreadsList, ptr %9, i32 0, i32 3
  %12 = load ptr, ptr %11, align 8
  %13 = getelementptr inbounds %class.ThreadsList, ptr %9, i32 0, i32 1
  %14 = load i32, ptr %13, align 4
  %15 = zext i32 %14 to i64
  %16 = getelementptr inbounds ptr, ptr %12, i64 %15
  store ptr %16, ptr %6, align 8
  %17 = getelementptr inbounds %class.ThreadsList, ptr %9, i32 0, i32 3
  %18 = load ptr, ptr %17, align 8
  store ptr %18, ptr %7, align 8
  br label %19

19:                                               ; preds = %30, %2
  %20 = load ptr, ptr %7, align 8
  %21 = load ptr, ptr %6, align 8
  %22 = icmp ne ptr %20, %21
  br i1 %22, label %23, label %33

23:                                               ; preds = %19
  %24 = load ptr, ptr %7, align 8
  %25 = load i64, ptr %5, align 8
  call void @_ZN8Prefetch4readEPKvl(ptr noundef %24, i64 noundef %25)
  %26 = load ptr, ptr %7, align 8
  %27 = load ptr, ptr %26, align 8
  store ptr %27, ptr %8, align 8
  %28 = load ptr, ptr %4, align 8
  %29 = load ptr, ptr %8, align 8
  call void @_ZNK11ThreadsList19threads_do_dispatchI13ThreadClosureEEvPT_P10JavaThread(ptr noundef nonnull align 8 dereferenceable(32) %9, ptr noundef %28, ptr noundef %29)
  br label %30

30:                                               ; preds = %23
  %31 = load ptr, ptr %7, align 8
  %32 = getelementptr inbounds ptr, ptr %31, i32 1
  store ptr %32, ptr %7, align 8
  br label %19, !llvm.loop !17

33:                                               ; preds = %19
  ret void
}

; Function Attrs: mustprogress nounwind uwtable
define hidden void @_ZN17ThreadsSMRSupport10threads_doEP13ThreadClosureP11ThreadsList(ptr noundef %0, ptr noundef %1) #1 align 2 {
  %3 = alloca ptr, align 8
  %4 = alloca ptr, align 8
  store ptr %0, ptr %3, align 8
  store ptr %1, ptr %4, align 8
  %5 = load ptr, ptr %4, align 8
  %6 = load ptr, ptr %3, align 8
  call void @_ZNK11ThreadsList10threads_doI13ThreadClosureEEvPT_(ptr noundef nonnull align 8 dereferenceable(32) %5, ptr noundef %6)
  %7 = load ptr, ptr %3, align 8
  call void @_ZN7Threads19non_java_threads_doEP13ThreadClosure(ptr noundef %7)
  ret void
}

; Function Attrs: mustprogress nounwind uwtable
define hidden void @_ZN17ThreadsSMRSupport10threads_doEP13ThreadClosure(ptr noundef %0) #1 align 2 {
  %2 = alloca ptr, align 8
  store ptr %0, ptr %2, align 8
  %3 = load ptr, ptr %2, align 8
  %4 = load volatile ptr, ptr @_ZN17ThreadsSMRSupport17_java_thread_listE, align 8
  call void @_ZN17ThreadsSMRSupport10threads_doEP13ThreadClosureP11ThreadsList(ptr noundef %3, ptr noundef %4)
  ret void
}