; Function Attrs: mustprogress nounwind uwtable
define hidden void @_ZN17ThreadsSMRSupport10threads_doEP13ThreadClosure(ptr noundef %0) local_unnamed_addr #1 align 2 {
  %2 = load volatile ptr, ptr @_ZN17ThreadsSMRSupport17_java_thread_listE, align 8
  %3 = load i64, ptr @PrefetchScanIntervalInBytes, align 8
  %4 = getelementptr inbounds i8, ptr %2, i64 16
  %5 = load ptr, ptr %4, align 8
  %6 = getelementptr inbounds i8, ptr %2, i64 4
  %7 = load i32, ptr %6, align 4
  %8 = zext i32 %7 to i64
  %9 = getelementptr inbounds ptr, ptr %5, i64 %8
  %.not8.i.i = icmp eq i32 %7, 0
  br i1 %.not8.i.i, label %_ZN17ThreadsSMRSupport10threads_doEP13ThreadClosureP11ThreadsList.exit, label %.lr.ph.i.i

.lr.ph.i.i:                                       ; preds = %1, %.lr.ph.i.i
  %.09.i.i = phi ptr [ %13, %.lr.ph.i.i ], [ %5, %1 ]
  tail call void asm sideeffect "prefetcht0 ($0,$1,1)", "r,r,~{dirflag},~{fpsr},~{flags}"(ptr %.09.i.i, i64 %3) #15, !srcloc !19
  %10 = load ptr, ptr %.09.i.i, align 8
  %11 = load ptr, ptr %0, align 8
  %12 = load ptr, ptr %11, align 8
  tail call void %12(ptr noundef nonnull align 8 dereferenceable(8) %0, ptr noundef %10) #15
  %13 = getelementptr inbounds i8, ptr %.09.i.i, i64 8
  %.not.i.i = icmp eq ptr %13, %9
  br i1 %.not.i.i, label %_ZN17ThreadsSMRSupport10threads_doEP13ThreadClosureP11ThreadsList.exit, label %.lr.ph.i.i, !llvm.loop !20

_ZN17ThreadsSMRSupport10threads_doEP13ThreadClosureP11ThreadsList.exit: ; preds = %.lr.ph.i.i, %1
  tail call void @_ZN7Threads19non_java_threads_doEP13ThreadClosure(ptr noundef %0) #15
  ret void
}